; Function Attrs: mustprogress uwtable
define dso_local noundef zeroext i1 @_ZN25cmInstallCommandArguments8FinalizeEv(ptr noundef nonnull align 8 dereferenceable(440) initializes((376, 384)) %0) local_unnamed_addr #5 align 2 {
  %2 = tail call noundef zeroext i1 @_ZN25cmInstallCommandArguments16CheckPermissionsEv(ptr noundef nonnull align 8 dereferenceable(440) %0)
  br i1 %2, label %3, label %6

3:                                                ; preds = %1
  %4 = getelementptr inbounds nuw i8, ptr %0, i64 112
  %5 = getelementptr inbounds nuw i8, ptr %0, i64 336
  tail call void @_ZNSt7__cxx1112basic_stringIcSt11char_traitsIcESaIcEE9_M_assignERKS4_(ptr noundef nonnull align 8 dereferenceable(32) %5, ptr noundef nonnull align 8 dereferenceable(32) %4)
  tail call void @_ZN5cmsys11SystemTools20ConvertToUnixSlashesERNSt7__cxx1112basic_stringIcSt11char_traitsIcESaIcEEE(ptr noundef nonnull align 8 dereferenceable(32) %5)
  br label %6

6:                                                ; preds = %1, %3
  ret i1 %2
}